; Function Attrs: null_pointer_is_valid sspstrong uwtable
define ptr @wmem_strbuf_strstr(ptr noundef readonly captures(none) %0, ptr noundef readonly captures(none) %1) local_unnamed_addr #0 {
  %3 = getelementptr inbounds nuw i8, ptr %0, i64 8
  %4 = load ptr, ptr %3, align 8
  %5 = getelementptr inbounds nuw i8, ptr %0, i64 16
  %6 = load i64, ptr %5, align 8
  %7 = getelementptr inbounds nuw i8, ptr %1, i64 8
  %8 = load ptr, ptr %7, align 8
  %9 = getelementptr inbounds nuw i8, ptr %1, i64 16
  %10 = load i64, ptr %9, align 8
  %11 = tail call ptr @ws_memmem(ptr noundef %4, i64 noundef %6, ptr noundef %8, i64 noundef %10)
  ret ptr %11
}